
Ultrasound_transmitter.elf:     file format elf32-avr

Sections:
Idx Name          Size      VMA       LMA       File off  Algn
  0 .data         00000000  00803e00  00803e00  00000514  2**0
                  ALLOC, LOAD, DATA
  1 .text         0000008a  00000000  00000000  000000d4  2**1
                  CONTENTS, ALLOC, LOAD, READONLY, CODE
  2 .comment      0000002f  00000000  00000000  00000514  2**0
                  CONTENTS, READONLY
  3 .stack.descriptors.hdr 0000001c  00000000  00000000  00000543  2**0
                  CONTENTS, READONLY
  4 .debug_aranges 00000078  00000000  00000000  0000055f  2**0
                  CONTENTS, READONLY, DEBUGGING
  5 .debug_info   00002a55  00000000  00000000  000005d7  2**0
                  CONTENTS, READONLY, DEBUGGING
  6 .debug_abbrev 000016b5  00000000  00000000  0000302c  2**0
                  CONTENTS, READONLY, DEBUGGING
  7 .debug_line   0000059f  00000000  00000000  000046e1  2**0
                  CONTENTS, READONLY, DEBUGGING
  8 .debug_frame  000000ec  00000000  00000000  00004c80  2**2
                  CONTENTS, READONLY, DEBUGGING
  9 .debug_str    00000973  00000000  00000000  00004d6c  2**0
                  CONTENTS, READONLY, DEBUGGING
 10 .debug_loc    0000013a  00000000  00000000  000056df  2**0
                  CONTENTS, READONLY, DEBUGGING
 11 .debug_ranges 00000068  00000000  00000000  00005819  2**0
                  CONTENTS, READONLY, DEBUGGING
 12 .text         00000002  00000436  00000436  0000050a  2**1
                  CONTENTS, ALLOC, LOAD, READONLY, CODE
 13 .note.gnu.avr.deviceinfo 0000003c  00000000  00000000  00005884  2**2
                  CONTENTS, READONLY, DEBUGGING
 14 .text.TM_sendByte 0000005e  00000254  00000254  00000328  2**1
                  CONTENTS, ALLOC, LOAD, READONLY, CODE
 15 .text.TM_start 00000012  000003e8  000003e8  000004bc  2**1
                  CONTENTS, ALLOC, LOAD, READONLY, CODE
 16 .text.TM_stop 00000012  000003fa  000003fa  000004ce  2**1
                  CONTENTS, ALLOC, LOAD, READONLY, CODE
 17 .text.TM_displayInit 00000012  0000040c  0000040c  000004e0  2**1
                  CONTENTS, ALLOC, LOAD, READONLY, CODE
 18 .text.TM_printNumber 00000162  0000008a  0000008a  0000015e  2**1
                  CONTENTS, ALLOC, LOAD, READONLY, CODE
 19 .text.setup   00000050  000002b2  000002b2  00000386  2**1
                  CONTENTS, ALLOC, LOAD, READONLY, CODE
 20 .text.set_frequency 00000014  000003d4  000003d4  000004a8  2**1
                  CONTENTS, ALLOC, LOAD, READONLY, CODE
 21 .text.read_buttons 00000030  00000346  00000346  0000041a  2**1
                  CONTENTS, ALLOC, LOAD, READONLY, CODE
 22 .text.select_frequency 00000044  00000302  00000302  000003d6  2**1
                  CONTENTS, ALLOC, LOAD, READONLY, CODE
 23 .text.sound_disable 00000028  00000376  00000376  0000044a  2**1
                  CONTENTS, ALLOC, LOAD, READONLY, CODE
 24 .text.sound_enable 0000001e  0000039e  0000039e  00000472  2**1
                  CONTENTS, ALLOC, LOAD, READONLY, CODE
 25 .text.main    00000068  000001ec  000001ec  000002c0  2**1
                  CONTENTS, ALLOC, LOAD, READONLY, CODE
 26 .rodata.digitMap 0000000a  0080842c  0000042c  00000500  2**0
                  CONTENTS, ALLOC, LOAD, READONLY, DATA
 27 .bss.enable   00000001  00803e02  00803e02  00000514  2**0
                  ALLOC
 28 .bss.b_play   00000001  00803e03  00803e03  00000514  2**0
                  ALLOC
 29 .bss.b_prev   00000001  00803e04  00803e04  00000514  2**0
                  ALLOC
 30 .bss.b_next   00000001  00803e05  00803e05  00000514  2**0
                  ALLOC
 31 .bss.FREQ     00000002  00803e00  00803e00  00000514  2**0
                  ALLOC
 32 .text.libgcc.mul 00000018  000003bc  000003bc  00000490  2**1
                  CONTENTS, ALLOC, LOAD, READONLY, CODE
 33 .text.__dummy_fini 00000002  00000438  00000438  0000050c  2**1
                  CONTENTS, ALLOC, LOAD, READONLY, CODE
 34 .text.__dummy_funcs_on_exit 00000002  0000043a  0000043a  0000050e  2**1
                  CONTENTS, ALLOC, LOAD, READONLY, CODE
 35 .text.__dummy_simulator_exit 00000002  0000043c  0000043c  00000510  2**1
                  CONTENTS, ALLOC, LOAD, READONLY, CODE
 36 .text.exit    0000000e  0000041e  0000041e  000004f2  2**1
                  CONTENTS, ALLOC, LOAD, READONLY, CODE
 37 .text._Exit   00000002  0000043e  0000043e  00000512  2**1
                  CONTENTS, ALLOC, LOAD, READONLY, CODE

Disassembly of section .text:

00000000 <__vectors>:
   0:	1c c0       	rjmp	.+56     	; 0x3a <__ctors_end>
   2:	19 c2       	rjmp	.+1074   	; 0x436 <__bad_interrupt>
   4:	18 c2       	rjmp	.+1072   	; 0x436 <__bad_interrupt>
   6:	17 c2       	rjmp	.+1070   	; 0x436 <__bad_interrupt>
   8:	16 c2       	rjmp	.+1068   	; 0x436 <__bad_interrupt>
   a:	15 c2       	rjmp	.+1066   	; 0x436 <__bad_interrupt>
   c:	14 c2       	rjmp	.+1064   	; 0x436 <__bad_interrupt>
   e:	13 c2       	rjmp	.+1062   	; 0x436 <__bad_interrupt>
  10:	12 c2       	rjmp	.+1060   	; 0x436 <__bad_interrupt>
  12:	11 c2       	rjmp	.+1058   	; 0x436 <__bad_interrupt>
  14:	10 c2       	rjmp	.+1056   	; 0x436 <__bad_interrupt>
  16:	0f c2       	rjmp	.+1054   	; 0x436 <__bad_interrupt>
  18:	0e c2       	rjmp	.+1052   	; 0x436 <__bad_interrupt>
  1a:	0d c2       	rjmp	.+1050   	; 0x436 <__bad_interrupt>
  1c:	0c c2       	rjmp	.+1048   	; 0x436 <__bad_interrupt>
  1e:	0b c2       	rjmp	.+1046   	; 0x436 <__bad_interrupt>
  20:	0a c2       	rjmp	.+1044   	; 0x436 <__bad_interrupt>
  22:	09 c2       	rjmp	.+1042   	; 0x436 <__bad_interrupt>
  24:	08 c2       	rjmp	.+1040   	; 0x436 <__bad_interrupt>
  26:	07 c2       	rjmp	.+1038   	; 0x436 <__bad_interrupt>
  28:	06 c2       	rjmp	.+1036   	; 0x436 <__bad_interrupt>
  2a:	05 c2       	rjmp	.+1034   	; 0x436 <__bad_interrupt>
  2c:	04 c2       	rjmp	.+1032   	; 0x436 <__bad_interrupt>
  2e:	03 c2       	rjmp	.+1030   	; 0x436 <__bad_interrupt>
  30:	02 c2       	rjmp	.+1028   	; 0x436 <__bad_interrupt>
  32:	01 c2       	rjmp	.+1026   	; 0x436 <__bad_interrupt>

00000034 <.dinit>:
  34:	3e 00       	.word	0x003e	; ????
  36:	3e 06       	cpc	r3, r30
  38:	80 00       	.word	0x0080	; ????

0000003a <__ctors_end>:
  3a:	11 24       	eor	r1, r1
  3c:	1f be       	out	0x3f, r1	; 63
  3e:	cf ef       	ldi	r28, 0xFF	; 255
  40:	cd bf       	out	0x3d, r28	; 61
  42:	df e3       	ldi	r29, 0x3F	; 63
  44:	de bf       	out	0x3e, r29	; 62

00000046 <__do_copy_data>:
  46:	e4 e3       	ldi	r30, 0x34	; 52
  48:	f0 e0       	ldi	r31, 0x00	; 0
  4a:	40 e0       	ldi	r20, 0x00	; 0
  4c:	17 c0       	rjmp	.+46     	; 0x7c <__do_clear_bss+0x8>
  4e:	b5 91       	lpm	r27, Z+
  50:	a5 91       	lpm	r26, Z+
  52:	35 91       	lpm	r19, Z+
  54:	25 91       	lpm	r18, Z+
  56:	05 91       	lpm	r16, Z+
  58:	07 fd       	sbrc	r16, 7
  5a:	0c c0       	rjmp	.+24     	; 0x74 <__do_clear_bss>
  5c:	95 91       	lpm	r25, Z+
  5e:	85 91       	lpm	r24, Z+
  60:	ef 01       	movw	r28, r30
  62:	f9 2f       	mov	r31, r25
  64:	e8 2f       	mov	r30, r24
  66:	05 90       	lpm	r0, Z+
  68:	0d 92       	st	X+, r0
  6a:	a2 17       	cp	r26, r18
  6c:	b3 07       	cpc	r27, r19
  6e:	d9 f7       	brne	.-10     	; 0x66 <__do_copy_data+0x20>
  70:	fe 01       	movw	r30, r28
  72:	04 c0       	rjmp	.+8      	; 0x7c <__do_clear_bss+0x8>

00000074 <__do_clear_bss>:
  74:	1d 92       	st	X+, r1
  76:	a2 17       	cp	r26, r18
  78:	b3 07       	cpc	r27, r19
  7a:	e1 f7       	brne	.-8      	; 0x74 <__do_clear_bss>
  7c:	e9 33       	cpi	r30, 0x39	; 57
  7e:	f4 07       	cpc	r31, r20
  80:	31 f7       	brne	.-52     	; 0x4e <__do_copy_data+0x8>
  82:	b4 d0       	rcall	.+360    	; 0x1ec <main>
  84:	cc c1       	rjmp	.+920    	; 0x41e <exit>

00000086 <_exit>:
  86:	f8 94       	cli

00000088 <__stop_program>:
  88:	ff cf       	rjmp	.-2      	; 0x88 <__stop_program>

Disassembly of section .text:

00000436 <__bad_interrupt>:
 436:	e4 cd       	rjmp	.-1080   	; 0x0 <__vectors>

Disassembly of section .text.TM_sendByte:

00000254 <TM_sendByte>:
	0x7F, // 8
	0x6F  // 9
};

void TM_sendByte(uint8_t data){
	for(int i = 0; i<8; i++){
 254:	20 e0       	ldi	r18, 0x00	; 0
 256:	30 e0       	ldi	r19, 0x00	; 0
 258:	19 c0       	rjmp	.+50     	; 0x28c <TM_sendByte+0x38>
		
		PORTB.OUTCLR = CLK;
 25a:	98 e0       	ldi	r25, 0x08	; 8
 25c:	90 93 26 04 	sts	0x0426, r25	; 0x800426 <__RODATA_PM_OFFSET__+0x7f8426>
		
		if (data & (1<<i)) // if value at index (lsb first)
 260:	48 2f       	mov	r20, r24
 262:	50 e0       	ldi	r21, 0x00	; 0
 264:	02 2e       	mov	r0, r18
 266:	02 c0       	rjmp	.+4      	; 0x26c <TM_sendByte+0x18>
 268:	55 95       	asr	r21
 26a:	47 95       	ror	r20
 26c:	0a 94       	dec	r0
 26e:	e2 f7       	brpl	.-8      	; 0x268 <TM_sendByte+0x14>
 270:	40 ff       	sbrs	r20, 0
 272:	04 c0       	rjmp	.+8      	; 0x27c <TM_sendByte+0x28>
		{
			PORTB.OUTSET = DIO;
 274:	94 e0       	ldi	r25, 0x04	; 4
 276:	90 93 25 04 	sts	0x0425, r25	; 0x800425 <__RODATA_PM_OFFSET__+0x7f8425>
 27a:	03 c0       	rjmp	.+6      	; 0x282 <TM_sendByte+0x2e>
		}
		else {
			PORTB.OUTCLR = DIO;
 27c:	94 e0       	ldi	r25, 0x04	; 4
 27e:	90 93 26 04 	sts	0x0426, r25	; 0x800426 <__RODATA_PM_OFFSET__+0x7f8426>
		}
		
		PORTB.OUTSET = CLK;
 282:	98 e0       	ldi	r25, 0x08	; 8
 284:	90 93 25 04 	sts	0x0425, r25	; 0x800425 <__RODATA_PM_OFFSET__+0x7f8425>
	0x7F, // 8
	0x6F  // 9
};

void TM_sendByte(uint8_t data){
	for(int i = 0; i<8; i++){
 288:	2f 5f       	subi	r18, 0xFF	; 255
 28a:	3f 4f       	sbci	r19, 0xFF	; 255
 28c:	28 30       	cpi	r18, 0x08	; 8
 28e:	31 05       	cpc	r19, r1
 290:	24 f3       	brlt	.-56     	; 0x25a <TM_sendByte+0x6>
		
		PORTB.OUTSET = CLK;
	}
	
	// WAIT FOR ACK
	PORTB.OUTCLR = CLK;
 292:	e0 e2       	ldi	r30, 0x20	; 32
 294:	f4 e0       	ldi	r31, 0x04	; 4
 296:	88 e0       	ldi	r24, 0x08	; 8
 298:	86 83       	std	Z+6, r24	; 0x06
	PORTB.DIRCLR = DIO; // To input
 29a:	94 e0       	ldi	r25, 0x04	; 4
 29c:	92 83       	std	Z+2, r25	; 0x02
	PORTB.OUTSET = CLK;
 29e:	85 83       	std	Z+5, r24	; 0x05
	#else
		//round up by default
		__ticks_dc = (uint32_t)(ceil(fabs(__tmp)));
	#endif

	__builtin_avr_delay_cycles(__ticks_dc);
 2a0:	a3 ec       	ldi	r26, 0xC3	; 195
 2a2:	b9 e0       	ldi	r27, 0x09	; 9
 2a4:	11 97       	sbiw	r26, 0x01	; 1
 2a6:	f1 f7       	brne	.-4      	; 0x2a4 <TM_sendByte+0x50>
 2a8:	00 c0       	rjmp	.+0      	; 0x2aa <TM_sendByte+0x56>
 2aa:	00 00       	nop
	_delay_ms(1);
	PORTB.OUTCLR = CLK;
 2ac:	86 83       	std	Z+6, r24	; 0x06
	PORTB.DIRSET = DIO; // Back to Output
 2ae:	91 83       	std	Z+1, r25	; 0x01
 2b0:	08 95       	ret

Disassembly of section .text.TM_start:

000003e8 <TM_start>:
}

void TM_start(void){
	PORTB.OUTSET = CLK | DIO;
 3e8:	e0 e2       	ldi	r30, 0x20	; 32
 3ea:	f4 e0       	ldi	r31, 0x04	; 4
 3ec:	8c e0       	ldi	r24, 0x0C	; 12
 3ee:	85 83       	std	Z+5, r24	; 0x05
	PORTB.OUTCLR = DIO;
 3f0:	84 e0       	ldi	r24, 0x04	; 4
 3f2:	86 83       	std	Z+6, r24	; 0x06
	PORTB.OUTCLR = CLK;
 3f4:	88 e0       	ldi	r24, 0x08	; 8
 3f6:	86 83       	std	Z+6, r24	; 0x06
 3f8:	08 95       	ret

Disassembly of section .text.TM_stop:

000003fa <TM_stop>:
}

void TM_stop(void){
	PORTB.OUTCLR = CLK;
 3fa:	e0 e2       	ldi	r30, 0x20	; 32
 3fc:	f4 e0       	ldi	r31, 0x04	; 4
 3fe:	98 e0       	ldi	r25, 0x08	; 8
 400:	96 83       	std	Z+6, r25	; 0x06
	PORTB.OUTCLR = DIO;
 402:	84 e0       	ldi	r24, 0x04	; 4
 404:	86 83       	std	Z+6, r24	; 0x06
	PORTB.OUTSET = CLK;
 406:	95 83       	std	Z+5, r25	; 0x05
	PORTB.OUTSET = DIO;
 408:	85 83       	std	Z+5, r24	; 0x05
 40a:	08 95       	ret

Disassembly of section .text.TM_displayInit:

0000040c <TM_displayInit>:
}
void TM_displayInit(void){
	TM_start();
 40c:	ed df       	rcall	.-38     	; 0x3e8 <TM_start>
	TM_sendByte(0x40);  // auto increment
 40e:	80 e4       	ldi	r24, 0x40	; 64
 410:	21 df       	rcall	.-446    	; 0x254 <TM_sendByte>
	TM_stop();
 412:	f3 df       	rcall	.-26     	; 0x3fa <TM_stop>

	TM_start();
 414:	e9 df       	rcall	.-46     	; 0x3e8 <TM_start>
	TM_sendByte(0x88 | 0x07); // display ON, max brightness
 416:	8f e8       	ldi	r24, 0x8F	; 143
 418:	1d df       	rcall	.-454    	; 0x254 <TM_sendByte>
	TM_stop();
 41a:	ef df       	rcall	.-34     	; 0x3fa <TM_stop>
 41c:	08 95       	ret

Disassembly of section .text.TM_printNumber:

0000008a <TM_printNumber>:
}

void TM_printNumber(uint16_t num)
{
  8a:	1f 93       	push	r17
  8c:	cf 93       	push	r28
  8e:	df 93       	push	r29
  90:	00 d0       	rcall	.+0      	; 0x92 <TM_printNumber+0x8>
  92:	00 d0       	rcall	.+0      	; 0x94 <TM_printNumber+0xa>
  94:	cd b7       	in	r28, 0x3d	; 61
  96:	de b7       	in	r29, 0x3e	; 62
  98:	ac 01       	movw	r20, r24
	uint8_t digits[4];

	if (num > 9999) num = 9999;
  9a:	80 31       	cpi	r24, 0x10	; 16
  9c:	97 42       	sbci	r25, 0x27	; 39
  9e:	10 f0       	brcs	.+4      	; 0xa4 <TM_printNumber+0x1a>
  a0:	4f e0       	ldi	r20, 0x0F	; 15
  a2:	57 e2       	ldi	r21, 0x27	; 39

	digits[0] = digitMap[(num / 1000) % 10];
  a4:	9a 01       	movw	r18, r20
  a6:	36 95       	lsr	r19
  a8:	27 95       	ror	r18
  aa:	36 95       	lsr	r19
  ac:	27 95       	ror	r18
  ae:	36 95       	lsr	r19
  b0:	27 95       	ror	r18
  b2:	a5 ec       	ldi	r26, 0xC5	; 197
  b4:	b0 e2       	ldi	r27, 0x20	; 32
  b6:	82 d1       	rcall	.+772    	; 0x3bc <__umulhisi3>
  b8:	fc 01       	movw	r30, r24
  ba:	f2 95       	swap	r31
  bc:	e2 95       	swap	r30
  be:	ef 70       	andi	r30, 0x0F	; 15
  c0:	ef 27       	eor	r30, r31
  c2:	ff 70       	andi	r31, 0x0F	; 15
  c4:	ef 27       	eor	r30, r31
  c6:	9f 01       	movw	r18, r30
  c8:	ad ec       	ldi	r26, 0xCD	; 205
  ca:	bc ec       	ldi	r27, 0xCC	; 204
  cc:	77 d1       	rcall	.+750    	; 0x3bc <__umulhisi3>
  ce:	96 95       	lsr	r25
  d0:	87 95       	ror	r24
  d2:	96 95       	lsr	r25
  d4:	87 95       	ror	r24
  d6:	96 95       	lsr	r25
  d8:	87 95       	ror	r24
  da:	9c 01       	movw	r18, r24
  dc:	22 0f       	add	r18, r18
  de:	33 1f       	adc	r19, r19
  e0:	88 0f       	add	r24, r24
  e2:	99 1f       	adc	r25, r25
  e4:	88 0f       	add	r24, r24
  e6:	99 1f       	adc	r25, r25
  e8:	88 0f       	add	r24, r24
  ea:	99 1f       	adc	r25, r25
  ec:	82 0f       	add	r24, r18
  ee:	93 1f       	adc	r25, r19
  f0:	9f 01       	movw	r18, r30
  f2:	28 1b       	sub	r18, r24
  f4:	39 0b       	sbc	r19, r25
  f6:	f9 01       	movw	r30, r18
  f8:	e4 5d       	subi	r30, 0xD4	; 212
  fa:	fb 47       	sbci	r31, 0x7B	; 123
  fc:	80 81       	ld	r24, Z
  fe:	89 83       	std	Y+1, r24	; 0x01
	digits[1] = digitMap[(num / 100)  % 10];
 100:	9a 01       	movw	r18, r20
 102:	36 95       	lsr	r19
 104:	27 95       	ror	r18
 106:	36 95       	lsr	r19
 108:	27 95       	ror	r18
 10a:	ab e7       	ldi	r26, 0x7B	; 123
 10c:	b4 e1       	ldi	r27, 0x14	; 20
 10e:	56 d1       	rcall	.+684    	; 0x3bc <__umulhisi3>
 110:	fc 01       	movw	r30, r24
 112:	f6 95       	lsr	r31
 114:	e7 95       	ror	r30
 116:	9f 01       	movw	r18, r30
 118:	ad ec       	ldi	r26, 0xCD	; 205
 11a:	bc ec       	ldi	r27, 0xCC	; 204
 11c:	4f d1       	rcall	.+670    	; 0x3bc <__umulhisi3>
 11e:	96 95       	lsr	r25
 120:	87 95       	ror	r24
 122:	96 95       	lsr	r25
 124:	87 95       	ror	r24
 126:	96 95       	lsr	r25
 128:	87 95       	ror	r24
 12a:	9c 01       	movw	r18, r24
 12c:	22 0f       	add	r18, r18
 12e:	33 1f       	adc	r19, r19
 130:	88 0f       	add	r24, r24
 132:	99 1f       	adc	r25, r25
 134:	88 0f       	add	r24, r24
 136:	99 1f       	adc	r25, r25
 138:	88 0f       	add	r24, r24
 13a:	99 1f       	adc	r25, r25
 13c:	82 0f       	add	r24, r18
 13e:	93 1f       	adc	r25, r19
 140:	9f 01       	movw	r18, r30
 142:	28 1b       	sub	r18, r24
 144:	39 0b       	sbc	r19, r25
 146:	f9 01       	movw	r30, r18
 148:	e4 5d       	subi	r30, 0xD4	; 212
 14a:	fb 47       	sbci	r31, 0x7B	; 123
 14c:	80 81       	ld	r24, Z
 14e:	8a 83       	std	Y+2, r24	; 0x02
	digits[2] = digitMap[(num / 10)   % 10];
 150:	9a 01       	movw	r18, r20
 152:	34 d1       	rcall	.+616    	; 0x3bc <__umulhisi3>
 154:	fc 01       	movw	r30, r24
 156:	f6 95       	lsr	r31
 158:	e7 95       	ror	r30
 15a:	f6 95       	lsr	r31
 15c:	e7 95       	ror	r30
 15e:	f6 95       	lsr	r31
 160:	e7 95       	ror	r30
 162:	9f 01       	movw	r18, r30
 164:	2b d1       	rcall	.+598    	; 0x3bc <__umulhisi3>
 166:	96 95       	lsr	r25
 168:	87 95       	ror	r24
 16a:	96 95       	lsr	r25
 16c:	87 95       	ror	r24
 16e:	96 95       	lsr	r25
 170:	87 95       	ror	r24
 172:	9c 01       	movw	r18, r24
 174:	22 0f       	add	r18, r18
 176:	33 1f       	adc	r19, r19
 178:	88 0f       	add	r24, r24
 17a:	99 1f       	adc	r25, r25
 17c:	88 0f       	add	r24, r24
 17e:	99 1f       	adc	r25, r25
 180:	88 0f       	add	r24, r24
 182:	99 1f       	adc	r25, r25
 184:	82 0f       	add	r24, r18
 186:	93 1f       	adc	r25, r19
 188:	9f 01       	movw	r18, r30
 18a:	28 1b       	sub	r18, r24
 18c:	39 0b       	sbc	r19, r25
 18e:	d9 01       	movw	r26, r18
 190:	a4 5d       	subi	r26, 0xD4	; 212
 192:	bb 47       	sbci	r27, 0x7B	; 123
 194:	8c 91       	ld	r24, X
 196:	8b 83       	std	Y+3, r24	; 0x03
	digits[3] = digitMap[num % 10];
 198:	cf 01       	movw	r24, r30
 19a:	88 0f       	add	r24, r24
 19c:	99 1f       	adc	r25, r25
 19e:	ee 0f       	add	r30, r30
 1a0:	ff 1f       	adc	r31, r31
 1a2:	ee 0f       	add	r30, r30
 1a4:	ff 1f       	adc	r31, r31
 1a6:	ee 0f       	add	r30, r30
 1a8:	ff 1f       	adc	r31, r31
 1aa:	e8 0f       	add	r30, r24
 1ac:	f9 1f       	adc	r31, r25
 1ae:	4e 1b       	sub	r20, r30
 1b0:	5f 0b       	sbc	r21, r31
 1b2:	fa 01       	movw	r30, r20
 1b4:	e4 5d       	subi	r30, 0xD4	; 212
 1b6:	fb 47       	sbci	r31, 0x7B	; 123
 1b8:	80 81       	ld	r24, Z
 1ba:	8c 83       	std	Y+4, r24	; 0x04

	TM_start();
 1bc:	15 d1       	rcall	.+554    	; 0x3e8 <TM_start>
	TM_sendByte(0xC0);      // Start form 0
 1be:	80 ec       	ldi	r24, 0xC0	; 192
 1c0:	49 d0       	rcall	.+146    	; 0x254 <TM_sendByte>
	for (uint8_t i = 0; i < 4; i++)
 1c2:	10 e0       	ldi	r17, 0x00	; 0
 1c4:	09 c0       	rjmp	.+18     	; 0x1d8 <TM_printNumber+0x14e>
	TM_sendByte(digits[i]);
 1c6:	e1 e0       	ldi	r30, 0x01	; 1
 1c8:	f0 e0       	ldi	r31, 0x00	; 0
 1ca:	ec 0f       	add	r30, r28
 1cc:	fd 1f       	adc	r31, r29
 1ce:	e1 0f       	add	r30, r17
 1d0:	f1 1d       	adc	r31, r1
 1d2:	80 81       	ld	r24, Z
 1d4:	3f d0       	rcall	.+126    	; 0x254 <TM_sendByte>
	digits[2] = digitMap[(num / 10)   % 10];
	digits[3] = digitMap[num % 10];

	TM_start();
	TM_sendByte(0xC0);      // Start form 0
	for (uint8_t i = 0; i < 4; i++)
 1d6:	1f 5f       	subi	r17, 0xFF	; 255
 1d8:	14 30       	cpi	r17, 0x04	; 4
 1da:	a8 f3       	brcs	.-22     	; 0x1c6 <TM_printNumber+0x13c>
	TM_sendByte(digits[i]);
	TM_stop();
 1dc:	0e d1       	rcall	.+540    	; 0x3fa <TM_stop>
	
}
 1de:	24 96       	adiw	r28, 0x04	; 4
 1e0:	cd bf       	out	0x3d, r28	; 61
 1e2:	de bf       	out	0x3e, r29	; 62
 1e4:	df 91       	pop	r29
 1e6:	cf 91       	pop	r28
 1e8:	1f 91       	pop	r17
 1ea:	08 95       	ret

Disassembly of section .text.setup:

000002b2 <setup>:

void setup(void){
	
	CPU_CCP = CCP_IOREG_gc; // Write protection off
 2b2:	88 ed       	ldi	r24, 0xD8	; 216
 2b4:	84 bf       	out	0x34, r24	; 52
	CLKCTRL.MCLKCTRLB = CLKCTRL_PEN_bm | CLKCTRL_PDIV_2X_gc; // 20 MHz clk, 2x Prescale = 10 MHZ
 2b6:	21 e0       	ldi	r18, 0x01	; 1
 2b8:	20 93 61 00 	sts	0x0061, r18	; 0x800061 <__RODATA_PM_OFFSET__+0x7f8061>

	PORTB.DIRSET = DIO; // to output
 2bc:	e0 e2       	ldi	r30, 0x20	; 32
 2be:	f4 e0       	ldi	r31, 0x04	; 4
 2c0:	94 e0       	ldi	r25, 0x04	; 4
 2c2:	91 83       	std	Z+1, r25	; 0x01
	PORTB.DIRSET = CLK; // to output
 2c4:	88 e0       	ldi	r24, 0x08	; 8
 2c6:	81 83       	std	Z+1, r24	; 0x01
	PORTB.DIRSET = WO0; // to output
 2c8:	21 83       	std	Z+1, r18	; 0x01
	PORTB.DIRSET = LED; // to output
 2ca:	22 e0       	ldi	r18, 0x02	; 2
 2cc:	21 83       	std	Z+1, r18	; 0x01
	
	PORTA.DIRCLR = PLAYB; // to input
 2ce:	e0 e0       	ldi	r30, 0x00	; 0
 2d0:	f4 e0       	ldi	r31, 0x04	; 4
 2d2:	22 83       	std	Z+2, r18	; 0x02
	PORTA.PIN1CTRL = PORT_PULLUPEN_bm; // pullup on
 2d4:	81 8b       	std	Z+17, r24	; 0x11
	PORTA.DIRCLR = NXTB; // to input
 2d6:	92 83       	std	Z+2, r25	; 0x02
	PORTA.PIN2CTRL = PORT_PULLUPEN_bm; // pullup on
 2d8:	82 8b       	std	Z+18, r24	; 0x12
	PORTA.DIRCLR = PREVB; // to input
 2da:	82 83       	std	Z+2, r24	; 0x02
	PORTA.PIN3CTRL = PORT_PULLUPEN_bm; // pullup on
 2dc:	83 8b       	std	Z+19, r24	; 0x13
	

	TCA0.SINGLE.PER = 1000; // number to count to
 2de:	e0 e0       	ldi	r30, 0x00	; 0
 2e0:	fa e0       	ldi	r31, 0x0A	; 10
 2e2:	28 ee       	ldi	r18, 0xE8	; 232
 2e4:	33 e0       	ldi	r19, 0x03	; 3
 2e6:	26 a3       	std	Z+38, r18	; 0x26
 2e8:	37 a3       	std	Z+39, r19	; 0x27
	TCA0.SINGLE.CMP0 = 500;
 2ea:	24 ef       	ldi	r18, 0xF4	; 244
 2ec:	31 e0       	ldi	r19, 0x01	; 1
 2ee:	20 a7       	std	Z+40, r18	; 0x28
 2f0:	31 a7       	std	Z+41, r19	; 0x29
	TCA0.SINGLE.CTRLB = TCA_SINGLE_CMP0EN_bm | TCA_SINGLE_WGMODE_SINGLESLOPE_gc;
 2f2:	93 e1       	ldi	r25, 0x13	; 19
 2f4:	91 83       	std	Z+1, r25	; 0x01
	TCA0.SINGLE.CTRLA = TCA_SINGLE_CLKSEL_DIV16_gc; // CLKDIV 16
 2f6:	80 83       	st	Z, r24
	TCA0.SINGLE.CTRLA |= TCA_SINGLE_ENABLE_bm; // counter enable
 2f8:	80 81       	ld	r24, Z
 2fa:	81 60       	ori	r24, 0x01	; 1
 2fc:	80 83       	st	Z, r24
	
	TM_displayInit();
 2fe:	86 d0       	rcall	.+268    	; 0x40c <TM_displayInit>
 300:	08 95       	ret

Disassembly of section .text.set_frequency:

000003d4 <set_frequency>:
}

void set_frequency(uint16_t fq){
	TCA0.SINGLE.CMP0 = fq/2;
 3d4:	9c 01       	movw	r18, r24
 3d6:	36 95       	lsr	r19
 3d8:	27 95       	ror	r18
 3da:	e0 e0       	ldi	r30, 0x00	; 0
 3dc:	fa e0       	ldi	r31, 0x0A	; 10
 3de:	20 a7       	std	Z+40, r18	; 0x28
 3e0:	31 a7       	std	Z+41, r19	; 0x29
	TCA0.SINGLE.PER = fq; // number to count to
 3e2:	86 a3       	std	Z+38, r24	; 0x26
 3e4:	97 a3       	std	Z+39, r25	; 0x27
 3e6:	08 95       	ret

Disassembly of section .text.read_buttons:

00000346 <read_buttons>:
}
 
 void read_buttons(void){
	 
	 b_next = 0;
 346:	10 92 05 3e 	sts	0x3E05, r1	; 0x803e05 <b_next>
	 b_prev = 0;
 34a:	10 92 04 3e 	sts	0x3E04, r1	; 0x803e04 <b_prev>
	 b_play = 0;
 34e:	10 92 03 3e 	sts	0x3E03, r1	; 0x803e03 <b_play>

	 uint8_t buttonreg = PORTA.IN;
 352:	80 91 08 04 	lds	r24, 0x0408	; 0x800408 <__RODATA_PM_OFFSET__+0x7f8408>
	 if (!(buttonreg & NXTB))
 356:	82 fd       	sbrc	r24, 2
 358:	03 c0       	rjmp	.+6      	; 0x360 <read_buttons+0x1a>
	 {
		 b_next = 1;
 35a:	91 e0       	ldi	r25, 0x01	; 1
 35c:	90 93 05 3e 	sts	0x3E05, r25	; 0x803e05 <b_next>
	 }
	 if (!(buttonreg & PREVB))
 360:	83 fd       	sbrc	r24, 3
 362:	03 c0       	rjmp	.+6      	; 0x36a <read_buttons+0x24>
	 {
		 b_prev = 1;
 364:	91 e0       	ldi	r25, 0x01	; 1
 366:	90 93 04 3e 	sts	0x3E04, r25	; 0x803e04 <b_prev>
	 }
	 if (!(buttonreg & PLAYB))
 36a:	81 fd       	sbrc	r24, 1
 36c:	03 c0       	rjmp	.+6      	; 0x374 <read_buttons+0x2e>
	 {
		 b_play = 1;
 36e:	81 e0       	ldi	r24, 0x01	; 1
 370:	80 93 03 3e 	sts	0x3E03, r24	; 0x803e03 <b_play>
 374:	08 95       	ret

Disassembly of section .text.select_frequency:

00000302 <select_frequency>:
	 }
 }
 
 void select_frequency(void){
	 if (b_next)
 302:	80 91 05 3e 	lds	r24, 0x3E05	; 0x803e05 <b_next>
 306:	88 23       	and	r24, r24
 308:	49 f0       	breq	.+18     	; 0x31c <select_frequency+0x1a>
	 {
		 FREQ = FREQ+10;
 30a:	80 91 00 3e 	lds	r24, 0x3E00	; 0x803e00 <_edata>
 30e:	90 91 01 3e 	lds	r25, 0x3E01	; 0x803e01 <_edata+0x1>
 312:	0a 96       	adiw	r24, 0x0a	; 10
 314:	80 93 00 3e 	sts	0x3E00, r24	; 0x803e00 <_edata>
 318:	90 93 01 3e 	sts	0x3E01, r25	; 0x803e01 <_edata+0x1>
	 }
	 if (b_prev)
 31c:	80 91 04 3e 	lds	r24, 0x3E04	; 0x803e04 <b_prev>
 320:	88 23       	and	r24, r24
 322:	59 f0       	breq	.+22     	; 0x33a <select_frequency+0x38>
	 {
		 if (FREQ != 0)
 324:	80 91 00 3e 	lds	r24, 0x3E00	; 0x803e00 <_edata>
 328:	90 91 01 3e 	lds	r25, 0x3E01	; 0x803e01 <_edata+0x1>
 32c:	00 97       	sbiw	r24, 0x00	; 0
 32e:	29 f0       	breq	.+10     	; 0x33a <select_frequency+0x38>
		 {
			FREQ = FREQ-10; 
 330:	0a 97       	sbiw	r24, 0x0a	; 10
 332:	80 93 00 3e 	sts	0x3E00, r24	; 0x803e00 <_edata>
 336:	90 93 01 3e 	sts	0x3E01, r25	; 0x803e01 <_edata+0x1>
		 }
	 }
	 
	 set_frequency(FREQ);
 33a:	80 91 00 3e 	lds	r24, 0x3E00	; 0x803e00 <_edata>
 33e:	90 91 01 3e 	lds	r25, 0x3E01	; 0x803e01 <_edata+0x1>
 342:	48 d0       	rcall	.+144    	; 0x3d4 <set_frequency>
 344:	08 95       	ret

Disassembly of section .text.sound_disable:

00000376 <sound_disable>:
 }
 
 void sound_disable(void){
	 PORTB.OUTCLR = LED;
 376:	a0 e2       	ldi	r26, 0x20	; 32
 378:	b4 e0       	ldi	r27, 0x04	; 4
 37a:	82 e0       	ldi	r24, 0x02	; 2
 37c:	16 96       	adiw	r26, 0x06	; 6
 37e:	8c 93       	st	X, r24
 380:	16 97       	sbiw	r26, 0x06	; 6
	 enable = 0;
 382:	10 92 02 3e 	sts	0x3E02, r1	; 0x803e02 <enable>
	 TCA0.SINGLE.CTRLA &= ~TCA_SINGLE_ENABLE_bm ; // counter disable
 386:	e0 e0       	ldi	r30, 0x00	; 0
 388:	fa e0       	ldi	r31, 0x0A	; 10
 38a:	80 81       	ld	r24, Z
 38c:	8e 7f       	andi	r24, 0xFE	; 254
 38e:	80 83       	st	Z, r24
	 TCA0.SINGLE.CTRLB &= ~TCA_SINGLE_CMP0EN_bm ;
 390:	81 81       	ldd	r24, Z+1	; 0x01
 392:	8f 7e       	andi	r24, 0xEF	; 239
 394:	81 83       	std	Z+1, r24	; 0x01
	 PORTB.OUTCLR=WO0;
 396:	81 e0       	ldi	r24, 0x01	; 1
 398:	16 96       	adiw	r26, 0x06	; 6
 39a:	8c 93       	st	X, r24
 39c:	08 95       	ret

Disassembly of section .text.sound_enable:

0000039e <sound_enable>:
 }
 void sound_enable(){
	 PORTB.OUTSET = LED;
 39e:	82 e0       	ldi	r24, 0x02	; 2
 3a0:	80 93 25 04 	sts	0x0425, r24	; 0x800425 <__RODATA_PM_OFFSET__+0x7f8425>
	 enable = 1;
 3a4:	81 e0       	ldi	r24, 0x01	; 1
 3a6:	80 93 02 3e 	sts	0x3E02, r24	; 0x803e02 <enable>
	 TCA0.SINGLE.CTRLA |= TCA_SINGLE_ENABLE_bm; // counter enable
 3aa:	e0 e0       	ldi	r30, 0x00	; 0
 3ac:	fa e0       	ldi	r31, 0x0A	; 10
 3ae:	80 81       	ld	r24, Z
 3b0:	81 60       	ori	r24, 0x01	; 1
 3b2:	80 83       	st	Z, r24
	 TCA0.SINGLE.CTRLB |= TCA_SINGLE_CMP0EN_bm;
 3b4:	81 81       	ldd	r24, Z+1	; 0x01
 3b6:	80 61       	ori	r24, 0x10	; 16
 3b8:	81 83       	std	Z+1, r24	; 0x01
 3ba:	08 95       	ret

Disassembly of section .text.main:

000001ec <main>:
 }
  
int main(void)
{
	setup();
 1ec:	62 d0       	rcall	.+196    	; 0x2b2 <setup>
	sound_disable();
 1ee:	c3 d0       	rcall	.+390    	; 0x376 <sound_disable>
	TM_printNumber(0000);
 1f0:	80 e0       	ldi	r24, 0x00	; 0
 1f2:	90 e0       	ldi	r25, 0x00	; 0
 1f4:	4a df       	rcall	.-364    	; 0x8a <_etext>
 1f6:	2f e7       	ldi	r18, 0x7F	; 127
 1f8:	84 e8       	ldi	r24, 0x84	; 132
 1fa:	9e e1       	ldi	r25, 0x1E	; 30
 1fc:	21 50       	subi	r18, 0x01	; 1
 1fe:	80 40       	sbci	r24, 0x00	; 0
 200:	90 40       	sbci	r25, 0x00	; 0
 202:	e1 f7       	brne	.-8      	; 0x1fc <main+0x10>
 204:	00 c0       	rjmp	.+0      	; 0x206 <__DATA_REGION_LENGTH__+0x6>
 206:	00 00       	nop
	_delay_ms(1000);
    while(1)
    {
		
        read_buttons();
 208:	9e d0       	rcall	.+316    	; 0x346 <read_buttons>
		select_frequency();
 20a:	7b d0       	rcall	.+246    	; 0x302 <select_frequency>
		if (b_play)
 20c:	80 91 03 3e 	lds	r24, 0x3E03	; 0x803e03 <b_play>
 210:	88 23       	and	r24, r24
 212:	61 f0       	breq	.+24     	; 0x22c <__DATA_REGION_LENGTH__+0x2c>
		{
			if (enable == 0)
 214:	80 91 02 3e 	lds	r24, 0x3E02	; 0x803e02 <enable>
 218:	81 11       	cpse	r24, r1
 21a:	05 c0       	rjmp	.+10     	; 0x226 <__DATA_REGION_LENGTH__+0x26>
			{
				enable = 1;
 21c:	81 e0       	ldi	r24, 0x01	; 1
 21e:	80 93 02 3e 	sts	0x3E02, r24	; 0x803e02 <enable>
				sound_enable();
 222:	bd d0       	rcall	.+378    	; 0x39e <sound_enable>
 224:	03 c0       	rjmp	.+6      	; 0x22c <__DATA_REGION_LENGTH__+0x2c>
				
			}
			else {
				enable = 0;
 226:	10 92 02 3e 	sts	0x3E02, r1	; 0x803e02 <enable>
				sound_disable();
 22a:	a5 d0       	rcall	.+330    	; 0x376 <sound_disable>
				
			}
			
		}
		TM_printNumber(FREQ);
 22c:	80 91 00 3e 	lds	r24, 0x3E00	; 0x803e00 <_edata>
 230:	90 91 01 3e 	lds	r25, 0x3E01	; 0x803e01 <_edata+0x1>
 234:	2a df       	rcall	.-428    	; 0x8a <_etext>
		set_frequency(FREQ);
 236:	80 91 00 3e 	lds	r24, 0x3E00	; 0x803e00 <_edata>
 23a:	90 91 01 3e 	lds	r25, 0x3E01	; 0x803e01 <_edata+0x1>
 23e:	ca d0       	rcall	.+404    	; 0x3d4 <set_frequency>
 240:	2f e7       	ldi	r18, 0x7F	; 127
 242:	8a e1       	ldi	r24, 0x1A	; 26
 244:	96 e0       	ldi	r25, 0x06	; 6
 246:	21 50       	subi	r18, 0x01	; 1
 248:	80 40       	sbci	r24, 0x00	; 0
 24a:	90 40       	sbci	r25, 0x00	; 0
 24c:	e1 f7       	brne	.-8      	; 0x246 <__DATA_REGION_LENGTH__+0x46>
 24e:	00 c0       	rjmp	.+0      	; 0x250 <__DATA_REGION_LENGTH__+0x50>
 250:	00 00       	nop
 252:	da cf       	rjmp	.-76     	; 0x208 <__DATA_REGION_LENGTH__+0x8>

Disassembly of section .text.libgcc.mul:

000003bc <__umulhisi3>:
 3bc:	a2 9f       	mul	r26, r18
 3be:	b0 01       	movw	r22, r0
 3c0:	b3 9f       	mul	r27, r19
 3c2:	c0 01       	movw	r24, r0
 3c4:	a3 9f       	mul	r26, r19
 3c6:	01 d0       	rcall	.+2      	; 0x3ca <__umulhisi3+0xe>
 3c8:	b2 9f       	mul	r27, r18
 3ca:	70 0d       	add	r23, r0
 3cc:	81 1d       	adc	r24, r1
 3ce:	11 24       	eor	r1, r1
 3d0:	91 1d       	adc	r25, r1
 3d2:	08 95       	ret

Disassembly of section .text.__dummy_fini:

00000438 <_fini>:
 438:	08 95       	ret

Disassembly of section .text.__dummy_funcs_on_exit:

0000043a <__funcs_on_exit>:
 43a:	08 95       	ret

Disassembly of section .text.__dummy_simulator_exit:

0000043c <__simulator_exit>:
 43c:	08 95       	ret

Disassembly of section .text.exit:

0000041e <exit>:
 41e:	ec 01       	movw	r28, r24
 420:	0c d0       	rcall	.+24     	; 0x43a <__funcs_on_exit>
 422:	0a d0       	rcall	.+20     	; 0x438 <_fini>
 424:	ce 01       	movw	r24, r28
 426:	0a d0       	rcall	.+20     	; 0x43c <__simulator_exit>
 428:	ce 01       	movw	r24, r28
 42a:	09 d0       	rcall	.+18     	; 0x43e <_Exit>

Disassembly of section .text._Exit:

0000043e <_Exit>:
 43e:	23 de       	rcall	.-954    	; 0x86 <_exit>
